#include <math.h>
#include <stdio.h>
#include <stdlib.h>
#include <string.h>

void main()
{
	int n,a[10000],m=1,i,j,t,k=1;
	scanf("%d",&n);
	for(i=3;i<=n;i++)
	{
		t=0;
		for(j=2;j<i;j++)
		{
			if(i%j==0)
			{
				t++;
				break;
			}
			else
				continue;
		}
		if(t==0)
		{
			a[m]=i;
			m++;
		}
		else
			continue;
	}
	for(i=1;i<m;i++)
	{
		if(a[i]==a[i+1]-2)
		{
			printf("%d %d\n",a[i],a[i+1]);
			k++;
		}
		else
			continue;
	}
	if(k==1)
		printf("empty\n");
}
