; ModuleID = '60/186.c'
source_filename = "60/186.c"
target datalayout = "e-m:e-p270:32:32-p271:32:32-p272:64:64-i64:64-f80:128-n8:16:32:64-S128"
target triple = "x86_64-pc-linux-gnu"

@.str = private unnamed_addr constant [3 x i8] c"%d\00", align 1
@.str.1 = private unnamed_addr constant [7 x i8] c"%d %d\0A\00", align 1
@.str.2 = private unnamed_addr constant [7 x i8] c"empty\0A\00", align 1

; Function Attrs: noinline nounwind uwtable
define dso_local void @main() #0 {
  %1 = alloca i32, align 4
  %2 = alloca [10000 x i32], align 16
  %3 = alloca i32, align 4
  %4 = alloca i32, align 4
  %5 = alloca i32, align 4
  %6 = alloca i32, align 4
  %7 = alloca i32, align 4
  store i32 1, i32* %3, align 4
  store i32 1, i32* %7, align 4
  %8 = call i32 (i8*, ...) @__isoc99_scanf(i8* getelementptr inbounds ([3 x i8], [3 x i8]* @.str, i64 0, i64 0), i32* %1)
  store i32 3, i32* %4, align 4
  br label %9

9:                                                ; preds = %42, %0
  %10 = load i32, i32* %4, align 4
  %11 = load i32, i32* %1, align 4
  %12 = icmp sle i32 %10, %11
  br i1 %12, label %13, label %45

13:                                               ; preds = %9
  store i32 0, i32* %6, align 4
  store i32 2, i32* %5, align 4
  br label %14

14:                                               ; preds = %27, %13
  %15 = load i32, i32* %5, align 4
  %16 = load i32, i32* %4, align 4
  %17 = icmp slt i32 %15, %16
  br i1 %17, label %18, label %30

18:                                               ; preds = %14
  %19 = load i32, i32* %4, align 4
  %20 = load i32, i32* %5, align 4
  %21 = srem i32 %19, %20
  %22 = icmp eq i32 %21, 0
  br i1 %22, label %23, label %26

23:                                               ; preds = %18
  %24 = load i32, i32* %6, align 4
  %25 = add nsw i32 %24, 1
  store i32 %25, i32* %6, align 4
  br label %30

26:                                               ; preds = %18
  br label %27

27:                                               ; preds = %26
  %28 = load i32, i32* %5, align 4
  %29 = add nsw i32 %28, 1
  store i32 %29, i32* %5, align 4
  br label %14

30:                                               ; preds = %23, %14
  %31 = load i32, i32* %6, align 4
  %32 = icmp eq i32 %31, 0
  br i1 %32, label %33, label %40

33:                                               ; preds = %30
  %34 = load i32, i32* %4, align 4
  %35 = load i32, i32* %3, align 4
  %36 = sext i32 %35 to i64
  %37 = getelementptr inbounds [10000 x i32], [10000 x i32]* %2, i64 0, i64 %36
  store i32 %34, i32* %37, align 4
  %38 = load i32, i32* %3, align 4
  %39 = add nsw i32 %38, 1
  store i32 %39, i32* %3, align 4
  br label %41

40:                                               ; preds = %30
  br label %42

41:                                               ; preds = %33
  br label %42

42:                                               ; preds = %41, %40
  %43 = load i32, i32* %4, align 4
  %44 = add nsw i32 %43, 1
  store i32 %44, i32* %4, align 4
  br label %9

45:                                               ; preds = %9
  store i32 1, i32* %4, align 4
  br label %46

46:                                               ; preds = %77, %45
  %47 = load i32, i32* %4, align 4
  %48 = load i32, i32* %3, align 4
  %49 = icmp slt i32 %47, %48
  br i1 %49, label %50, label %80

50:                                               ; preds = %46
  %51 = load i32, i32* %4, align 4
  %52 = sext i32 %51 to i64
  %53 = getelementptr inbounds [10000 x i32], [10000 x i32]* %2, i64 0, i64 %52
  %54 = load i32, i32* %53, align 4
  %55 = load i32, i32* %4, align 4
  %56 = add nsw i32 %55, 1
  %57 = sext i32 %56 to i64
  %58 = getelementptr inbounds [10000 x i32], [10000 x i32]* %2, i64 0, i64 %57
  %59 = load i32, i32* %58, align 4
  %60 = sub nsw i32 %59, 2
  %61 = icmp eq i32 %54, %60
  br i1 %61, label %62, label %75

62:                                               ; preds = %50
  %63 = load i32, i32* %4, align 4
  %64 = sext i32 %63 to i64
  %65 = getelementptr inbounds [10000 x i32], [10000 x i32]* %2, i64 0, i64 %64
  %66 = load i32, i32* %65, align 4
  %67 = load i32, i32* %4, align 4
  %68 = add nsw i32 %67, 1
  %69 = sext i32 %68 to i64
  %70 = getelementptr inbounds [10000 x i32], [10000 x i32]* %2, i64 0, i64 %69
  %71 = load i32, i32* %70, align 4
  %72 = call i32 (i8*, ...) @printf(i8* getelementptr inbounds ([7 x i8], [7 x i8]* @.str.1, i64 0, i64 0), i32 %66, i32 %71)
  %73 = load i32, i32* %7, align 4
  %74 = add nsw i32 %73, 1
  store i32 %74, i32* %7, align 4
  br label %76

75:                                               ; preds = %50
  br label %77

76:                                               ; preds = %62
  br label %77

77:                                               ; preds = %76, %75
  %78 = load i32, i32* %4, align 4
  %79 = add nsw i32 %78, 1
  store i32 %79, i32* %4, align 4
  br label %46

80:                                               ; preds = %46
  %81 = load i32, i32* %7, align 4
  %82 = icmp eq i32 %81, 1
  br i1 %82, label %83, label %85

83:                                               ; preds = %80
  %84 = call i32 (i8*, ...) @printf(i8* getelementptr inbounds ([7 x i8], [7 x i8]* @.str.2, i64 0, i64 0))
  br label %85

85:                                               ; preds = %83, %80
  ret void
}

declare dso_local i32 @__isoc99_scanf(i8*, ...) #1

declare dso_local i32 @printf(i8*, ...) #1


!llvm.module.flags = !{!0}
!llvm.ident = !{!1}

!0 = !{i32 1, !"wchar_size", i32 4}
!1 = !{!"clang version 10.0.0-4ubuntu1 "}
